target datalayout = "e-m:e-p270:32:32-p271:32:32-p272:64:64-i64:64-i128:128-f80:128-n8:16:32:64-S128"
target triple = "x86_64-unknown-linux-gnu"

%"class.cineon::InStream" = type { ptr, ptr }
%"class.OpenImageIO_v2_6_0::basic_string_view" = type { ptr, i64 }

@.str = private unnamed_addr constant [3 x i8] c"rb\00", align 1

; Function Attrs: mustprogress nounwind uwtable
define linkonce_odr noundef i64 @_ZNSt11char_traitsIcE6lengthEPKc(ptr noundef %__s) #4 comdat align 2 {
entry:
  %__s.addr = alloca ptr, align 8
  store ptr %__s, ptr %__s.addr, align 8
  %0 = load ptr, ptr %__s.addr, align 8
  %call = call i64 @strlen(ptr noundef %0) #3
  ret i64 %call
}

; Function Attrs: noreturn nounwind uwtable
define linkonce_odr hidden void @__clang_call_terminate(ptr noundef %0) #7 comdat {
  %2 = call ptr @__cxa_begin_catch(ptr %0) #3
  call void @_ZSt9terminatev() #9
  unreachable
}

; Function Attrs: mustprogress uwtable
define linkonce_odr hidden noundef i64 @_ZN18OpenImageIO_v2_6_017basic_string_viewIcSt11char_traitsIcEE8cestrlenEPKc(ptr noundef %chars) #6 comdat align 2 {
entry:
  %chars.addr = alloca ptr, align 8
  store ptr %chars, ptr %chars.addr, align 8
  %0 = load ptr, ptr %chars.addr, align 8
  %call = call noundef i64 @_ZNSt11char_traitsIcE6lengthEPKc(ptr noundef %0)
  ret i64 %call
}

; Function Attrs: mustprogress nounwind uwtable
define linkonce_odr hidden void @_ZN18OpenImageIO_v2_6_017basic_string_viewIcSt11char_traitsIcEEC2EPKc(ptr noundef nonnull align 8 dereferenceable(16) %this, ptr noundef %chars) unnamed_addr #4 comdat align 2 personality ptr @__gxx_personality_v0 {
entry:
  %this.addr = alloca ptr, align 8
  %chars.addr = alloca ptr, align 8
  store ptr %this, ptr %this.addr, align 8
  store ptr %chars, ptr %chars.addr, align 8
  %this1 = load ptr, ptr %this.addr, align 8
  %m_chars = getelementptr inbounds %"class.OpenImageIO_v2_6_0::basic_string_view", ptr %this1, i32 0, i32 0
  %0 = load ptr, ptr %chars.addr, align 8
  store ptr %0, ptr %m_chars, align 8
  %m_len = getelementptr inbounds %"class.OpenImageIO_v2_6_0::basic_string_view", ptr %this1, i32 0, i32 1
  %1 = load ptr, ptr %chars.addr, align 8
  %tobool = icmp ne ptr %1, null
  br i1 %tobool, label %cond.true, label %cond.false

cond.true:                                        ; preds = %entry
  %2 = load ptr, ptr %chars.addr, align 8
  %call = invoke noundef i64 @_ZN18OpenImageIO_v2_6_017basic_string_viewIcSt11char_traitsIcEE8cestrlenEPKc(ptr noundef %2)
          to label %invoke.cont unwind label %terminate.lpad

invoke.cont:                                      ; preds = %cond.true
  br label %cond.end

cond.false:                                       ; preds = %entry
  br label %cond.end

cond.end:                                         ; preds = %cond.false, %invoke.cont
  %cond = phi i64 [ %call, %invoke.cont ], [ 0, %cond.false ]
  store i64 %cond, ptr %m_len, align 8
  ret void

terminate.lpad:                                   ; preds = %cond.true
  %3 = landingpad { ptr, i32 }
          catch ptr null
  %4 = extractvalue { ptr, i32 } %3, 0
  call void @__clang_call_terminate(ptr %4) #9
  unreachable
}

; Function Attrs: mustprogress uwtable
define hidden noundef zeroext i1 @_ZN6cineon8InStream4OpenEPKc(ptr noundef nonnull align 8 dereferenceable(16) %this, ptr noundef %f) unnamed_addr #6 align 2 {
entry:
  %retval = alloca i1, align 1
  %this.addr = alloca ptr, align 8
  %f.addr = alloca ptr, align 8
  %agg.tmp = alloca %"class.OpenImageIO_v2_6_0::basic_string_view", align 8
  %agg.tmp2 = alloca %"class.OpenImageIO_v2_6_0::basic_string_view", align 8
  store ptr %this, ptr %this.addr, align 8
  store ptr %f, ptr %f.addr, align 8
  %this1 = load ptr, ptr %this.addr, align 8
  %fp = getelementptr inbounds %"class.cineon::InStream", ptr %this1, i32 0, i32 1
  %0 = load ptr, ptr %fp, align 8
  %tobool = icmp ne ptr %0, null
  br i1 %tobool, label %if.then, label %if.end

if.then:                                          ; preds = %entry
  %vtable = load ptr, ptr %this1, align 8
  %vfn = getelementptr inbounds ptr, ptr %vtable, i64 3
  %1 = load ptr, ptr %vfn, align 8
  call void %1(ptr noundef nonnull align 8 dereferenceable(16) %this1)
  br label %if.end

if.end:                                           ; preds = %if.then, %entry
  %2 = load ptr, ptr %f.addr, align 8
  call void @_ZN18OpenImageIO_v2_6_017basic_string_viewIcSt11char_traitsIcEEC2EPKc(ptr noundef nonnull align 8 dereferenceable(16) %agg.tmp, ptr noundef %2) #3
  call void @_ZN18OpenImageIO_v2_6_017basic_string_viewIcSt11char_traitsIcEEC2EPKc(ptr noundef nonnull align 8 dereferenceable(16) %agg.tmp2, ptr noundef @.str) #3
  %call = call noundef ptr @_ZN18OpenImageIO_v2_6_010Filesystem5fopenENS_17basic_string_viewIcSt11char_traitsIcEEES4_(ptr noundef %agg.tmp, ptr noundef %agg.tmp2)
  %fp3 = getelementptr inbounds %"class.cineon::InStream", ptr %this1, i32 0, i32 1
  store ptr %call, ptr %fp3, align 8
  %cmp = icmp eq ptr %call, null
  br i1 %cmp, label %if.then4, label %if.end5

if.then4:                                         ; preds = %if.end
  store i1 false, ptr %retval, align 1
  br label %return

if.end5:                                          ; preds = %if.end
  store i1 true, ptr %retval, align 1
  br label %return

return:                                           ; preds = %if.end5, %if.then4
  %3 = load i1, ptr %retval, align 1
  ret i1 %3
}