; Function Attrs: mustprogress uwtable
define hidden noundef zeroext i1 @_ZN6cineon8InStream4OpenEPKc(ptr noundef nonnull align 8 dereferenceable(16) %this, ptr noundef %f) unnamed_addr #7 align 2 personality ptr @__gxx_personality_v0 {
entry:
  %agg.tmp = alloca %"class.OpenImageIO_v2_6_0::basic_string_view", align 8
  %agg.tmp2 = alloca %"class.OpenImageIO_v2_6_0::basic_string_view", align 8
  %fp = getelementptr inbounds i8, ptr %this, i64 8
  %0 = load ptr, ptr %fp, align 8
  %tobool.not = icmp eq ptr %0, null
  br i1 %tobool.not, label %if.end, label %if.then

if.then:                                          ; preds = %entry
  %vtable = load ptr, ptr %this, align 8
  %vfn = getelementptr inbounds i8, ptr %vtable, i64 24
  %1 = load ptr, ptr %vfn, align 8
  tail call void %1(ptr noundef nonnull align 8 dereferenceable(16) %this)
  br label %if.end

if.end:                                           ; preds = %if.then, %entry
  store ptr %f, ptr %agg.tmp, align 8
  %tobool.not.i = icmp eq ptr %f, null
  br i1 %tobool.not.i, label %_ZN18OpenImageIO_v2_6_017basic_string_viewIcSt11char_traitsIcEEC2EPKc.exit, label %cond.true.i

cond.true.i:                                      ; preds = %if.end
  %call.i.i.i = tail call noundef i64 @strlen(ptr noundef nonnull dereferenceable(1) %f) #13
  br label %_ZN18OpenImageIO_v2_6_017basic_string_viewIcSt11char_traitsIcEEC2EPKc.exit

_ZN18OpenImageIO_v2_6_017basic_string_viewIcSt11char_traitsIcEEC2EPKc.exit: ; preds = %if.end, %cond.true.i
  %cond.i = phi i64 [ %call.i.i.i, %cond.true.i ], [ 0, %if.end ]
  %m_len.i = getelementptr inbounds i8, ptr %agg.tmp, i64 8
  store i64 %cond.i, ptr %m_len.i, align 8
  store ptr @.str, ptr %agg.tmp2, align 8
  %m_len.i4 = getelementptr inbounds i8, ptr %agg.tmp2, i64 8
  store i64 2, ptr %m_len.i4, align 8
  %call = call noundef ptr @_ZN18OpenImageIO_v2_6_010Filesystem5fopenENS_17basic_string_viewIcSt11char_traitsIcEEES4_(ptr noundef nonnull %agg.tmp, ptr noundef nonnull %agg.tmp2)
  store ptr %call, ptr %fp, align 8
  %cmp = icmp ne ptr %call, null
  ret i1 %cmp
}